; Function Attrs: mustprogress uwtable
define hidden noundef zeroext i1 @_ZN28horn_subsume_model_converter7mk_hornEP4exprR7obj_refI9func_decl11ast_managerERS2_IS0_S4_E(ptr noundef nonnull align 8 dereferenceable(120) %0, ptr noundef readonly captures(none) %1, ptr noundef nonnull align 8 captures(none) dereferenceable(16) %2, ptr noundef nonnull align 8 dereferenceable(16) %3) local_unnamed_addr #3 align 2 {
  br label %5

5:                                                ; preds = %12, %4
  %.010 = phi ptr [ %1, %4 ], [ %14, %12 ]
  %6 = getelementptr inbounds nuw i8, ptr %.010, i64 4
  %7 = load i32, ptr %6, align 4
  %trunc = trunc i32 %7 to i16
  switch i16 %trunc, label %_ZNK11ast_manager5is_orEPK4expr.exit [
    i16 2, label %8
    i16 0, label %15
  ]

8:                                                ; preds = %5
  %9 = getelementptr inbounds nuw i8, ptr %.010, i64 16
  %10 = load i32, ptr %9, align 8, !tbaa !198
  %11 = icmp eq i32 %10, 0
  br i1 %11, label %12, label %_ZNK11ast_manager5is_orEPK4expr.exit

12:                                               ; preds = %8
  %13 = getelementptr inbounds nuw i8, ptr %.010, i64 24
  %14 = load ptr, ptr %13, align 8, !tbaa !201
  br label %5, !llvm.loop !202

15:                                               ; preds = %5
  %16 = getelementptr inbounds nuw i8, ptr %.010, i64 16
  %17 = load ptr, ptr %16, align 8, !tbaa !92
  %18 = getelementptr inbounds nuw i8, ptr %17, i64 24
  %19 = load ptr, ptr %18, align 8, !tbaa !97
  %.not.i.i.i.i.i = icmp eq ptr %19, null
  br i1 %.not.i.i.i.i.i, label %_ZNK11ast_manager5is_orEPK4expr.exit, label %_ZNK11ast_manager10is_impliesEPK4expr.exit.i

_ZNK11ast_manager10is_impliesEPK4expr.exit.i:     ; preds = %15
  %20 = load i32, ptr %19, align 8, !tbaa !102
  %21 = icmp eq i32 %20, 0
  %22 = getelementptr inbounds nuw i8, ptr %19, i64 4
  %23 = load i32, ptr %22, align 4
  %24 = icmp eq i32 %23, 9
  %25 = select i1 %21, i1 %24, i1 false
  br i1 %25, label %26, label %_ZNK11ast_manager5is_orEPK4expr.exit

26:                                               ; preds = %_ZNK11ast_manager10is_impliesEPK4expr.exit.i
  %27 = getelementptr inbounds nuw i8, ptr %.010, i64 24
  %28 = load i32, ptr %27, align 8, !tbaa !109
  %29 = icmp eq i32 %28, 2
  br i1 %29, label %30, label %_ZNK11ast_manager5is_orEPK4expr.exit

30:                                               ; preds = %26
  %31 = getelementptr inbounds nuw i8, ptr %.010, i64 32
  %32 = load ptr, ptr %31, align 8, !tbaa !19
  %33 = getelementptr inbounds nuw i8, ptr %.010, i64 40
  %34 = load ptr, ptr %33, align 8, !tbaa !19
  %35 = getelementptr inbounds nuw i8, ptr %34, i64 4
  %36 = load i32, ptr %35, align 4
  %37 = and i32 %36, 65535
  %38 = icmp eq i32 %37, 0
  br i1 %38, label %39, label %_ZNK11ast_manager5is_orEPK4expr.exit

39:                                               ; preds = %30
  %40 = getelementptr inbounds nuw i8, ptr %34, i64 16
  %41 = load ptr, ptr %40, align 8, !tbaa !92
  %42 = getelementptr inbounds nuw i8, ptr %41, i64 24
  %43 = load ptr, ptr %42, align 8, !tbaa !97
  %44 = icmp eq ptr %43, null
  br i1 %44, label %_Z11is_uninterpPK4expr.exit.thread, label %_Z11is_uninterpPK4expr.exit

_Z11is_uninterpPK4expr.exit:                      ; preds = %39
  %45 = load i32, ptr %43, align 8, !tbaa !102
  %46 = icmp eq i32 %45, -1
  br i1 %46, label %_Z11is_uninterpPK4expr.exit.thread, label %_ZNK11ast_manager5is_orEPK4expr.exit

_Z11is_uninterpPK4expr.exit.thread:               ; preds = %39, %_Z11is_uninterpPK4expr.exit
  %47 = tail call noundef zeroext i1 @_ZN28horn_subsume_model_converter7mk_hornEP3appP4exprR7obj_refI9func_decl11ast_managerERS4_IS2_S6_E(ptr noundef nonnull align 8 dereferenceable(120) %0, ptr noundef nonnull %34, ptr noundef %32, ptr noundef nonnull align 8 dereferenceable(16) %2, ptr noundef nonnull align 8 dereferenceable(16) %3)
  br label %_ZNK11ast_manager5is_orEPK4expr.exit

_ZNK11ast_manager5is_orEPK4expr.exit:             ; preds = %5, %8, %15, %26, %_ZNK11ast_manager10is_impliesEPK4expr.exit.i, %30, %_Z11is_uninterpPK4expr.exit, %_Z11is_uninterpPK4expr.exit.thread
  %.0 = phi i1 [ %47, %_Z11is_uninterpPK4expr.exit.thread ], [ false, %_Z11is_uninterpPK4expr.exit ], [ false, %30 ], [ false, %_ZNK11ast_manager10is_impliesEPK4expr.exit.i ], [ false, %26 ], [ false, %15 ], [ false, %8 ], [ false, %5 ]
  ret i1 %.0
}